target datalayout = "e-m:e-p270:32:32-p271:32:32-p272:64:64-i64:64-i128:128-f80:128-n8:16:32:64-S128"
target triple = "x86_64-pc-linux-gnu"

%"class.std::__cxx11::basic_string" = type { %"struct.std::__cxx11::basic_string<char>::_Alloc_hider", i64, %union.anon }
%"struct.std::__cxx11::basic_string<char>::_Alloc_hider" = type { ptr }
%union.anon = type { i64, [8 x i8] }
%"class.__gnu_cxx::__normal_iterator.77" = type { ptr }
%"class.__gnu_cxx::__normal_iterator.150" = type { ptr }
%class.anon.51 = type <{ ptr, i8, [7 x i8] }>

@.str.118 = private unnamed_addr constant [22 x i8] c"basic_string::replace\00", align 1
@.str.119 = private unnamed_addr constant [55 x i8] c"%s: __pos (which is %zu) > this->size() (which is %zu)\00", align 1

; Function Attrs: mustprogress nounwind uwtable
define available_externally noundef i64 @_ZNKSt7__cxx1112basic_stringIcSt11char_traitsIcESaIcEE8_M_limitEmm(ptr noundef nonnull align 8 dereferenceable(32) %0, i64 noundef %1, i64 noundef %2) #4 align 2 {
  %4 = alloca ptr, align 8
  %5 = alloca i64, align 8
  %6 = alloca i64, align 8
  %7 = alloca i8, align 1
  store ptr %0, ptr %4, align 8, !tbaa !24
  store i64 %1, ptr %5, align 8, !tbaa !45
  store i64 %2, ptr %6, align 8, !tbaa !45
  %8 = load ptr, ptr %4, align 8
  call void @llvm.lifetime.start.p0(i64 1, ptr %7) #3
  %9 = load i64, ptr %6, align 8, !tbaa !45
  %10 = call noundef i64 @_ZNKSt7__cxx1112basic_stringIcSt11char_traitsIcESaIcEE4sizeEv(ptr noundef nonnull align 8 dereferenceable(32) %8) #3
  %11 = load i64, ptr %5, align 8, !tbaa !45
  %12 = sub i64 %10, %11
  %13 = icmp ult i64 %9, %12
  %14 = zext i1 %13 to i8
  store i8 %14, ptr %7, align 1, !tbaa !61
  %15 = load i8, ptr %7, align 1, !tbaa !61, !range !75, !noundef !76
  %16 = trunc i8 %15 to i1
  br i1 %16, label %17, label %19

17:                                               ; preds = %3
  %18 = load i64, ptr %6, align 8, !tbaa !45
  br label %23

19:                                               ; preds = %3
  %20 = call noundef i64 @_ZNKSt7__cxx1112basic_stringIcSt11char_traitsIcESaIcEE4sizeEv(ptr noundef nonnull align 8 dereferenceable(32) %8) #3
  %21 = load i64, ptr %5, align 8, !tbaa !45
  %22 = sub i64 %20, %21
  br label %23

23:                                               ; preds = %19, %17
  %24 = phi i64 [ %18, %17 ], [ %22, %19 ]
  call void @llvm.lifetime.end.p0(i64 1, ptr %7) #3
  ret i64 %24
}

; Function Attrs: mustprogress uwtable
define available_externally noundef i64 @_ZNKSt7__cxx1112basic_stringIcSt11char_traitsIcESaIcEE8_M_checkEmPKc(ptr noundef nonnull align 8 dereferenceable(32) %0, i64 noundef %1, ptr noundef %2) #6 align 2 {
  %4 = alloca ptr, align 8
  %5 = alloca i64, align 8
  %6 = alloca ptr, align 8
  store ptr %0, ptr %4, align 8, !tbaa !24
  store i64 %1, ptr %5, align 8, !tbaa !45
  store ptr %2, ptr %6, align 8, !tbaa !33
  %7 = load ptr, ptr %4, align 8
  %8 = load i64, ptr %5, align 8, !tbaa !45
  %9 = call noundef i64 @_ZNKSt7__cxx1112basic_stringIcSt11char_traitsIcESaIcEE4sizeEv(ptr noundef nonnull align 8 dereferenceable(32) %7) #3
  %10 = icmp ugt i64 %8, %9
  br i1 %10, label %11, label %15

11:                                               ; preds = %3
  %12 = load ptr, ptr %6, align 8, !tbaa !33
  %13 = load i64, ptr %5, align 8, !tbaa !45
  %14 = call noundef i64 @_ZNKSt7__cxx1112basic_stringIcSt11char_traitsIcESaIcEE4sizeEv(ptr noundef nonnull align 8 dereferenceable(32) %7) #3
  call void (ptr, ...) @_ZSt24__throw_out_of_range_fmtPKcz(ptr noundef @.str.119, ptr noundef %12, i64 noundef %13, i64 noundef %14) #28
  unreachable

15:                                               ; preds = %3
  %16 = load i64, ptr %5, align 8, !tbaa !45
  ret i64 %16
}

; Function Attrs: mustprogress nounwind uwtable
define linkonce_odr dso_local noundef nonnull align 8 dereferenceable(8) ptr @_ZNK9__gnu_cxx17__normal_iteratorIPKcNSt7__cxx1112basic_stringIcSt11char_traitsIcESaIcEEEE4baseEv(ptr noundef nonnull align 8 dereferenceable(8) %0) #4 comdat align 2 {
  %2 = alloca ptr, align 8
  store ptr %0, ptr %2, align 8, !tbaa !340
  %3 = load ptr, ptr %2, align 8
  %4 = getelementptr inbounds nuw %"class.__gnu_cxx::__normal_iterator.77", ptr %3, i32 0, i32 0
  ret ptr %4
}

; Function Attrs: mustprogress uwtable
define available_externally noundef nonnull align 8 dereferenceable(32) ptr @_ZNSt7__cxx1112basic_stringIcSt11char_traitsIcESaIcEE7replaceEmmPKcm(ptr noundef nonnull align 8 dereferenceable(32) %0, i64 noundef %1, i64 noundef %2, ptr noundef %3, i64 noundef %4) #6 align 2 {
  %6 = alloca ptr, align 8
  %7 = alloca i64, align 8
  %8 = alloca i64, align 8
  %9 = alloca ptr, align 8
  %10 = alloca i64, align 8
  store ptr %0, ptr %6, align 8, !tbaa !24
  store i64 %1, ptr %7, align 8, !tbaa !45
  store i64 %2, ptr %8, align 8, !tbaa !45
  store ptr %3, ptr %9, align 8, !tbaa !33
  store i64 %4, ptr %10, align 8, !tbaa !45
  %11 = load ptr, ptr %6, align 8
  %12 = load i64, ptr %7, align 8, !tbaa !45
  %13 = call noundef i64 @_ZNKSt7__cxx1112basic_stringIcSt11char_traitsIcESaIcEE8_M_checkEmPKc(ptr noundef nonnull align 8 dereferenceable(32) %11, i64 noundef %12, ptr noundef @.str.118)
  %14 = load i64, ptr %7, align 8, !tbaa !45
  %15 = load i64, ptr %8, align 8, !tbaa !45
  %16 = call noundef i64 @_ZNKSt7__cxx1112basic_stringIcSt11char_traitsIcESaIcEE8_M_limitEmm(ptr noundef nonnull align 8 dereferenceable(32) %11, i64 noundef %14, i64 noundef %15) #3
  %17 = load ptr, ptr %9, align 8, !tbaa !33
  %18 = load i64, ptr %10, align 8, !tbaa !45
  %19 = call noundef nonnull align 8 dereferenceable(32) ptr @_ZNSt7__cxx1112basic_stringIcSt11char_traitsIcESaIcEE10_M_replaceEmmPKcm(ptr noundef nonnull align 8 dereferenceable(32) %11, i64 noundef %13, i64 noundef %16, ptr noundef %17, i64 noundef %18)
  ret ptr %19
}

; Function Attrs: inlinehint mustprogress nounwind uwtable
define linkonce_odr dso_local noundef i64 @_ZN9__gnu_cxxmiIPKcPcNSt7__cxx1112basic_stringIcSt11char_traitsIcESaIcEEEEEDTmicldtfp_4baseEcldtfp0_4baseEERKNS_17__normal_iteratorIT_T1_EERKNSB_IT0_SD_EE(ptr noundef nonnull align 8 dereferenceable(8) %0, ptr noundef nonnull align 8 dereferenceable(8) %1) #8 comdat {
  %3 = alloca ptr, align 8
  %4 = alloca ptr, align 8
  store ptr %0, ptr %3, align 8, !tbaa !340
  store ptr %1, ptr %4, align 8, !tbaa !597
  %5 = load ptr, ptr %3, align 8, !tbaa !340
  %6 = call noundef nonnull align 8 dereferenceable(8) ptr @_ZNK9__gnu_cxx17__normal_iteratorIPKcNSt7__cxx1112basic_stringIcSt11char_traitsIcESaIcEEEE4baseEv(ptr noundef nonnull align 8 dereferenceable(8) %5) #3
  %7 = load ptr, ptr %6, align 8, !tbaa !33
  %8 = load ptr, ptr %4, align 8, !tbaa !597
  %9 = call noundef nonnull align 8 dereferenceable(8) ptr @_ZNK9__gnu_cxx17__normal_iteratorIPcNSt7__cxx1112basic_stringIcSt11char_traitsIcESaIcEEEE4baseEv(ptr noundef nonnull align 8 dereferenceable(8) %8) #3
  %10 = load ptr, ptr %9, align 8, !tbaa !33
  %11 = ptrtoint ptr %7 to i64
  %12 = ptrtoint ptr %10 to i64
  %13 = sub i64 %11, %12
  ret i64 %13
}

; Function Attrs: mustprogress nounwind uwtable
define linkonce_odr dso_local noundef nonnull align 8 dereferenceable(8) ptr @_ZNK9__gnu_cxx17__normal_iteratorIPcNSt7__cxx1112basic_stringIcSt11char_traitsIcESaIcEEEE4baseEv(ptr noundef nonnull align 8 dereferenceable(8) %0) #4 comdat align 2 {
  %2 = alloca ptr, align 8
  store ptr %0, ptr %2, align 8, !tbaa !597
  %3 = load ptr, ptr %2, align 8
  %4 = getelementptr inbounds nuw %"class.__gnu_cxx::__normal_iterator.150", ptr %3, i32 0, i32 0
  ret ptr %4
}

; Function Attrs: mustprogress nounwind uwtable
define linkonce_odr dso_local void @_ZN9__gnu_cxx17__normal_iteratorIPcNSt7__cxx1112basic_stringIcSt11char_traitsIcESaIcEEEEC2ERKS1_(ptr noundef nonnull align 8 dereferenceable(8) %0, ptr noundef nonnull align 8 dereferenceable(8) %1) unnamed_addr #4 comdat align 2 {
  %3 = alloca ptr, align 8
  %4 = alloca ptr, align 8
  store ptr %0, ptr %3, align 8, !tbaa !597
  store ptr %1, ptr %4, align 8, !tbaa !71
  %5 = load ptr, ptr %3, align 8
  %6 = getelementptr inbounds nuw %"class.__gnu_cxx::__normal_iterator.150", ptr %5, i32 0, i32 0
  %7 = load ptr, ptr %4, align 8, !tbaa !71
  %8 = load ptr, ptr %7, align 8, !tbaa !33
  store ptr %8, ptr %6, align 8, !tbaa !599
  ret void
}

; Function Attrs: mustprogress nounwind uwtable
define available_externally noundef ptr @_ZNKSt7__cxx1112basic_stringIcSt11char_traitsIcESaIcEE7_M_dataEv(ptr noundef nonnull align 8 dereferenceable(32) %0) #4 align 2 {
  %2 = alloca ptr, align 8
  store ptr %0, ptr %2, align 8, !tbaa !24
  %3 = load ptr, ptr %2, align 8
  %4 = getelementptr inbounds nuw %"class.std::__cxx11::basic_string", ptr %3, i32 0, i32 0
  %5 = getelementptr inbounds nuw %"struct.std::__cxx11::basic_string<char>::_Alloc_hider", ptr %4, i32 0, i32 0
  %6 = load ptr, ptr %5, align 8, !tbaa !358
  ret ptr %6
}

; Function Attrs: mustprogress nounwind uwtable
define available_externally noundef i64 @_ZNKSt7__cxx1112basic_stringIcSt11char_traitsIcESaIcEE4sizeEv(ptr noundef nonnull align 8 dereferenceable(32) %0) #4 align 2 {
  %2 = alloca ptr, align 8
  store ptr %0, ptr %2, align 8, !tbaa !24
  %3 = load ptr, ptr %2, align 8
  %4 = getelementptr inbounds nuw %"class.std::__cxx11::basic_string", ptr %3, i32 0, i32 1
  %5 = load i64, ptr %4, align 8, !tbaa !179
  ret i64 %5
}

; Function Attrs: mustprogress uwtable
define available_externally noundef nonnull align 8 dereferenceable(32) ptr @_ZNSt7__cxx1112basic_stringIcSt11char_traitsIcESaIcEE6insertEmRKS4_(ptr noundef nonnull align 8 dereferenceable(32) %0, i64 noundef %1, ptr noundef nonnull align 8 dereferenceable(32) %2) #6 align 2 {
  %4 = alloca ptr, align 8
  %5 = alloca i64, align 8
  %6 = alloca ptr, align 8
  store ptr %0, ptr %4, align 8, !tbaa !24
  store i64 %1, ptr %5, align 8, !tbaa !45
  store ptr %2, ptr %6, align 8, !tbaa !24
  %7 = load ptr, ptr %4, align 8
  %8 = load i64, ptr %5, align 8, !tbaa !45
  %9 = load ptr, ptr %6, align 8, !tbaa !24
  %10 = call noundef ptr @_ZNKSt7__cxx1112basic_stringIcSt11char_traitsIcESaIcEE7_M_dataEv(ptr noundef nonnull align 8 dereferenceable(32) %9)
  %11 = load ptr, ptr %6, align 8, !tbaa !24
  %12 = call noundef i64 @_ZNKSt7__cxx1112basic_stringIcSt11char_traitsIcESaIcEE4sizeEv(ptr noundef nonnull align 8 dereferenceable(32) %11) #3
  %13 = call noundef nonnull align 8 dereferenceable(32) ptr @_ZNSt7__cxx1112basic_stringIcSt11char_traitsIcESaIcEE7replaceEmmPKcm(ptr noundef nonnull align 8 dereferenceable(32) %7, i64 noundef %8, i64 noundef 0, ptr noundef %10, i64 noundef %12)
  ret ptr %13
}

; Function Attrs: mustprogress uwtable
define available_externally ptr @_ZNSt7__cxx1112basic_stringIcSt11char_traitsIcESaIcEE6insertEN9__gnu_cxx17__normal_iteratorIPKcS4_EEc(ptr noundef nonnull align 8 dereferenceable(32) %0, ptr %1, i8 noundef signext %2) #6 align 2 {
  %4 = alloca %"class.__gnu_cxx::__normal_iterator.150", align 8
  %5 = alloca %"class.__gnu_cxx::__normal_iterator.77", align 8
  %6 = alloca ptr, align 8
  %7 = alloca i8, align 1
  %8 = alloca i64, align 8
  %9 = alloca %"class.__gnu_cxx::__normal_iterator.150", align 8
  %10 = alloca ptr, align 8
  %11 = getelementptr inbounds nuw %"class.__gnu_cxx::__normal_iterator.77", ptr %5, i32 0, i32 0
  store ptr %1, ptr %11, align 8
  store ptr %0, ptr %6, align 8, !tbaa !24
  store i8 %2, ptr %7, align 1, !tbaa !28
  %12 = load ptr, ptr %6, align 8
  call void @llvm.lifetime.start.p0(i64 8, ptr %8) #3
  call void @llvm.lifetime.start.p0(i64 8, ptr %9) #3
  %13 = call ptr @_ZNSt7__cxx1112basic_stringIcSt11char_traitsIcESaIcEE5beginEv(ptr noundef nonnull align 8 dereferenceable(32) %12) #3
  %14 = getelementptr inbounds nuw %"class.__gnu_cxx::__normal_iterator.150", ptr %9, i32 0, i32 0
  store ptr %13, ptr %14, align 8
  %15 = call noundef i64 @_ZN9__gnu_cxxmiIPKcPcNSt7__cxx1112basic_stringIcSt11char_traitsIcESaIcEEEEEDTmicldtfp_4baseEcldtfp0_4baseEERKNS_17__normal_iteratorIT_T1_EERKNSB_IT0_SD_EE(ptr noundef nonnull align 8 dereferenceable(8) %5, ptr noundef nonnull align 8 dereferenceable(8) %9) #3
  call void @llvm.lifetime.end.p0(i64 8, ptr %9) #3
  store i64 %15, ptr %8, align 8, !tbaa !45
  %16 = load i64, ptr %8, align 8, !tbaa !45
  %17 = load i8, ptr %7, align 1, !tbaa !28
  %18 = call noundef nonnull align 8 dereferenceable(32) ptr @_ZNSt7__cxx1112basic_stringIcSt11char_traitsIcESaIcEE14_M_replace_auxEmmmc(ptr noundef nonnull align 8 dereferenceable(32) %12, i64 noundef %16, i64 noundef 0, i64 noundef 1, i8 noundef signext %17)
  call void @llvm.lifetime.start.p0(i64 8, ptr %10) #3
  %19 = call noundef ptr @_ZNKSt7__cxx1112basic_stringIcSt11char_traitsIcESaIcEE7_M_dataEv(ptr noundef nonnull align 8 dereferenceable(32) %12)
  %20 = load i64, ptr %8, align 8, !tbaa !45
  %21 = getelementptr inbounds nuw i8, ptr %19, i64 %20
  store ptr %21, ptr %10, align 8, !tbaa !33
  call void @_ZN9__gnu_cxx17__normal_iteratorIPcNSt7__cxx1112basic_stringIcSt11char_traitsIcESaIcEEEEC2ERKS1_(ptr noundef nonnull align 8 dereferenceable(8) %4, ptr noundef nonnull align 8 dereferenceable(8) %10) #3
  call void @llvm.lifetime.end.p0(i64 8, ptr %10) #3
  call void @llvm.lifetime.end.p0(i64 8, ptr %8) #3
  %22 = getelementptr inbounds nuw %"class.__gnu_cxx::__normal_iterator.150", ptr %4, i32 0, i32 0
  %23 = load ptr, ptr %22, align 8
  ret ptr %23
}

; Function Attrs: mustprogress nounwind uwtable
define linkonce_odr dso_local void @_ZN9__gnu_cxx17__normal_iteratorIPKcNSt7__cxx1112basic_stringIcSt11char_traitsIcESaIcEEEEC2IPcvEERKNS0_IT_S8_EE(ptr noundef nonnull align 8 dereferenceable(8) %0, ptr noundef nonnull align 8 dereferenceable(8) %1) unnamed_addr #4 comdat align 2 {
  %3 = alloca ptr, align 8
  %4 = alloca ptr, align 8
  store ptr %0, ptr %3, align 8, !tbaa !340
  store ptr %1, ptr %4, align 8, !tbaa !597
  %5 = load ptr, ptr %3, align 8
  %6 = getelementptr inbounds nuw %"class.__gnu_cxx::__normal_iterator.77", ptr %5, i32 0, i32 0
  %7 = load ptr, ptr %4, align 8, !tbaa !597
  %8 = call noundef nonnull align 8 dereferenceable(8) ptr @_ZNK9__gnu_cxx17__normal_iteratorIPcNSt7__cxx1112basic_stringIcSt11char_traitsIcESaIcEEEE4baseEv(ptr noundef nonnull align 8 dereferenceable(8) %7) #3
  %9 = load ptr, ptr %8, align 8, !tbaa !33
  store ptr %9, ptr %6, align 8, !tbaa !342
  ret void
}

; Function Attrs: mustprogress nounwind uwtable
define available_externally ptr @_ZNSt7__cxx1112basic_stringIcSt11char_traitsIcESaIcEE5beginEv(ptr noundef nonnull align 8 dereferenceable(32) %0) #4 align 2 {
  %2 = alloca %"class.__gnu_cxx::__normal_iterator.150", align 8
  %3 = alloca ptr, align 8
  %4 = alloca ptr, align 8
  store ptr %0, ptr %3, align 8, !tbaa !24
  %5 = load ptr, ptr %3, align 8
  call void @llvm.lifetime.start.p0(i64 8, ptr %4) #3
  %6 = call noundef ptr @_ZNKSt7__cxx1112basic_stringIcSt11char_traitsIcESaIcEE7_M_dataEv(ptr noundef nonnull align 8 dereferenceable(32) %5)
  store ptr %6, ptr %4, align 8, !tbaa !33
  call void @_ZN9__gnu_cxx17__normal_iteratorIPcNSt7__cxx1112basic_stringIcSt11char_traitsIcESaIcEEEEC2ERKS1_(ptr noundef nonnull align 8 dereferenceable(8) %2, ptr noundef nonnull align 8 dereferenceable(8) %4) #3
  call void @llvm.lifetime.end.p0(i64 8, ptr %4) #3
  %7 = getelementptr inbounds nuw %"class.__gnu_cxx::__normal_iterator.150", ptr %2, i32 0, i32 0
  %8 = load ptr, ptr %7, align 8
  ret ptr %8
}

; Function Attrs: mustprogress nounwind uwtable
define available_externally noundef zeroext i1 @_ZNKSt7__cxx1112basic_stringIcSt11char_traitsIcESaIcEE5emptyEv(ptr noundef nonnull align 8 dereferenceable(32) %0) #4 align 2 {
  %2 = alloca ptr, align 8
  store ptr %0, ptr %2, align 8, !tbaa !24
  %3 = load ptr, ptr %2, align 8
  %4 = call noundef i64 @_ZNKSt7__cxx1112basic_stringIcSt11char_traitsIcESaIcEE4sizeEv(ptr noundef nonnull align 8 dereferenceable(32) %3) #3
  %5 = icmp eq i64 %4, 0
  ret i1 %5
}

; Function Attrs: inlinehint mustprogress uwtable
define internal void @"_ZZN13cmSystemTools7EnvDiff14ParseOperationERKNSt7__cxx1112basic_stringIcSt11char_traitsIcESaIcEEEENK3$_3clERS6_"(ptr noundef nonnull align 8 dereferenceable(9) %0, ptr noundef nonnull align 8 dereferenceable(32) %1) #5 align 2 {
  %3 = alloca ptr, align 8
  %4 = alloca ptr, align 8
  %5 = alloca %"class.__gnu_cxx::__normal_iterator.77", align 8
  %6 = alloca %"class.__gnu_cxx::__normal_iterator.150", align 8
  %7 = alloca %"class.__gnu_cxx::__normal_iterator.150", align 8
  store ptr %0, ptr %3, align 8, !tbaa !67
  store ptr %1, ptr %4, align 8, !tbaa !24
  %8 = load ptr, ptr %3, align 8
  %9 = load ptr, ptr %4, align 8, !tbaa !24
  %10 = call noundef zeroext i1 @_ZNKSt7__cxx1112basic_stringIcSt11char_traitsIcESaIcEE5emptyEv(ptr noundef nonnull align 8 dereferenceable(32) %9) #3
  br i1 %10, label %22, label %11

11:                                               ; preds = %2
  %12 = load ptr, ptr %4, align 8, !tbaa !24
  call void @llvm.lifetime.start.p0(i64 8, ptr %6) #3
  %13 = load ptr, ptr %4, align 8, !tbaa !24
  %14 = call ptr @_ZNSt7__cxx1112basic_stringIcSt11char_traitsIcESaIcEE5beginEv(ptr noundef nonnull align 8 dereferenceable(32) %13) #3
  %15 = getelementptr inbounds nuw %"class.__gnu_cxx::__normal_iterator.150", ptr %6, i32 0, i32 0
  store ptr %14, ptr %15, align 8
  call void @_ZN9__gnu_cxx17__normal_iteratorIPKcNSt7__cxx1112basic_stringIcSt11char_traitsIcESaIcEEEEC2IPcvEERKNS0_IT_S8_EE(ptr noundef nonnull align 8 dereferenceable(8) %5, ptr noundef nonnull align 8 dereferenceable(8) %6) #3
  %16 = getelementptr inbounds nuw %class.anon.51, ptr %8, i32 0, i32 1
  %17 = load i8, ptr %16, align 8, !tbaa !231
  %18 = getelementptr inbounds nuw %"class.__gnu_cxx::__normal_iterator.77", ptr %5, i32 0, i32 0
  %19 = load ptr, ptr %18, align 8
  %20 = call ptr @_ZNSt7__cxx1112basic_stringIcSt11char_traitsIcESaIcEE6insertEN9__gnu_cxx17__normal_iteratorIPKcS4_EEc(ptr noundef nonnull align 8 dereferenceable(32) %12, ptr %19, i8 noundef signext %17)
  %21 = getelementptr inbounds nuw %"class.__gnu_cxx::__normal_iterator.150", ptr %7, i32 0, i32 0
  store ptr %20, ptr %21, align 8
  call void @llvm.lifetime.end.p0(i64 8, ptr %6) #3
  br label %22

22:                                               ; preds = %11, %2
  %23 = load ptr, ptr %4, align 8, !tbaa !24
  %24 = getelementptr inbounds nuw %class.anon.51, ptr %8, i32 0, i32 0
  %25 = load ptr, ptr %24, align 8, !tbaa !741
  %26 = call noundef nonnull align 8 dereferenceable(32) ptr @_ZNSt7__cxx1112basic_stringIcSt11char_traitsIcESaIcEE6insertEmRKS4_(ptr noundef nonnull align 8 dereferenceable(32) %23, i64 noundef 0, ptr noundef nonnull align 8 dereferenceable(32) %25)
  ret void
}

; Function Attrs: mustprogress nounwind uwtable
define linkonce_odr dso_local noundef ptr @_ZNKSt9_Any_data9_M_accessEv(ptr noundef nonnull align 8 dereferenceable(16) %0) #4 comdat align 2 {
  %2 = alloca ptr, align 8
  store ptr %0, ptr %2, align 8, !tbaa !434
  %3 = load ptr, ptr %2, align 8
  %4 = getelementptr inbounds [16 x i8], ptr %3, i64 0, i64 0
  ret ptr %4
}

; Function Attrs: mustprogress uwtable
define internal void @"_ZSt13__invoke_implIvRZN13cmSystemTools7EnvDiff14ParseOperationERKNSt7__cxx1112basic_stringIcSt11char_traitsIcESaIcEEEE3$_3JRS7_EET_St14__invoke_otherOT0_DpOT1_"(ptr noundef nonnull align 8 dereferenceable(9) %0, ptr noundef nonnull align 8 dereferenceable(32) %1) #6 {
  %3 = alloca ptr, align 8
  %4 = alloca ptr, align 8
  store ptr %0, ptr %3, align 8, !tbaa !67
  store ptr %1, ptr %4, align 8, !tbaa !24
  %5 = load ptr, ptr %3, align 8, !tbaa !67
  %6 = load ptr, ptr %4, align 8, !tbaa !24
  call void @"_ZZN13cmSystemTools7EnvDiff14ParseOperationERKNSt7__cxx1112basic_stringIcSt11char_traitsIcESaIcEEEENK3$_3clERS6_"(ptr noundef nonnull align 8 dereferenceable(9) %5, ptr noundef nonnull align 8 dereferenceable(32) %6)
  ret void
}

; Function Attrs: mustprogress nounwind uwtable
define internal noundef nonnull align 8 dereferenceable(9) ptr @"_ZNKSt9_Any_data9_M_accessIZN13cmSystemTools7EnvDiff14ParseOperationERKNSt7__cxx1112basic_stringIcSt11char_traitsIcESaIcEEEE3$_3EERKT_v"(ptr noundef nonnull align 8 dereferenceable(16) %0) #4 align 2 {
  %2 = alloca ptr, align 8
  store ptr %0, ptr %2, align 8, !tbaa !434
  %3 = load ptr, ptr %2, align 8
  %4 = call noundef ptr @_ZNKSt9_Any_data9_M_accessEv(ptr noundef nonnull align 8 dereferenceable(16) %3) #3
  ret ptr %4
}

; Function Attrs: mustprogress uwtable
define internal void @"_ZSt10__invoke_rIvRZN13cmSystemTools7EnvDiff14ParseOperationERKNSt7__cxx1112basic_stringIcSt11char_traitsIcESaIcEEEE3$_3JRS7_EENSt9enable_ifIX16is_invocable_r_vIT_T0_DpT1_EESE_E4typeEOSF_DpOSG_"(ptr noundef nonnull align 8 dereferenceable(9) %0, ptr noundef nonnull align 8 dereferenceable(32) %1) #6 {
  %3 = alloca ptr, align 8
  %4 = alloca ptr, align 8
  store ptr %0, ptr %3, align 8, !tbaa !67
  store ptr %1, ptr %4, align 8, !tbaa !24
  %5 = load ptr, ptr %3, align 8, !tbaa !67
  %6 = load ptr, ptr %4, align 8, !tbaa !24
  call void @"_ZSt13__invoke_implIvRZN13cmSystemTools7EnvDiff14ParseOperationERKNSt7__cxx1112basic_stringIcSt11char_traitsIcESaIcEEEE3$_3JRS7_EET_St14__invoke_otherOT0_DpOT1_"(ptr noundef nonnull align 8 dereferenceable(9) %5, ptr noundef nonnull align 8 dereferenceable(32) %6)
  ret void
}

; Function Attrs: mustprogress nounwind uwtable
define internal noundef ptr @"_ZNSt14_Function_base13_Base_managerIZN13cmSystemTools7EnvDiff14ParseOperationERKNSt7__cxx1112basic_stringIcSt11char_traitsIcESaIcEEEE3$_3E14_M_get_pointerERKSt9_Any_data"(ptr noundef nonnull align 8 dereferenceable(16) %0) #4 align 2 {
  %2 = alloca ptr, align 8
  %3 = alloca ptr, align 8
  store ptr %0, ptr %2, align 8, !tbaa !434
  call void @llvm.lifetime.start.p0(i64 8, ptr %3) #3
  %4 = load ptr, ptr %2, align 8, !tbaa !434
  %5 = call noundef nonnull align 8 dereferenceable(9) ptr @"_ZNKSt9_Any_data9_M_accessIZN13cmSystemTools7EnvDiff14ParseOperationERKNSt7__cxx1112basic_stringIcSt11char_traitsIcESaIcEEEE3$_3EERKT_v"(ptr noundef nonnull align 8 dereferenceable(16) %4) #3
  store ptr %5, ptr %3, align 8, !tbaa !67
  %6 = load ptr, ptr %3, align 8, !tbaa !67
  call void @llvm.lifetime.end.p0(i64 8, ptr %3) #3
  ret ptr %6
}

; Function Attrs: mustprogress uwtable
define internal void @"_ZNSt17_Function_handlerIFvRNSt7__cxx1112basic_stringIcSt11char_traitsIcESaIcEEEEZN13cmSystemTools7EnvDiff14ParseOperationERKS5_E3$_3E9_M_invokeERKSt9_Any_dataS6_"(ptr noundef nonnull align 8 dereferenceable(16) %0, ptr noundef nonnull align 8 dereferenceable(32) %1) #6 align 2 {
  %3 = alloca ptr, align 8
  %4 = alloca ptr, align 8
  store ptr %0, ptr %3, align 8, !tbaa !434
  store ptr %1, ptr %4, align 8, !tbaa !24
  %5 = load ptr, ptr %3, align 8, !tbaa !434
  %6 = call noundef ptr @"_ZNSt14_Function_base13_Base_managerIZN13cmSystemTools7EnvDiff14ParseOperationERKNSt7__cxx1112basic_stringIcSt11char_traitsIcESaIcEEEE3$_3E14_M_get_pointerERKSt9_Any_data"(ptr noundef nonnull align 8 dereferenceable(16) %5) #3
  %7 = load ptr, ptr %4, align 8, !tbaa !24
  call void @"_ZSt10__invoke_rIvRZN13cmSystemTools7EnvDiff14ParseOperationERKNSt7__cxx1112basic_stringIcSt11char_traitsIcESaIcEEEE3$_3JRS7_EENSt9enable_ifIX16is_invocable_r_vIT_T0_DpT1_EESE_E4typeEOSF_DpOSG_"(ptr noundef nonnull align 8 dereferenceable(9) %6, ptr noundef nonnull align 8 dereferenceable(32) %7)
  ret void
}